; Function Attrs: mustprogress nofree norecurse nounwind memory(read, argmem: readwrite, inaccessiblemem: none) uwtable
define noundef double @_ZNK7rocksdb13HistogramStat10PercentileEd(ptr noundef nonnull readonly align 8 captures(none) dereferenceable(920) %0, double noundef %1) local_unnamed_addr #5 align 2 personality ptr @__gxx_personality_v0 {
  %3 = getelementptr inbounds nuw i8, ptr %0, i64 16
  %4 = load atomic i64, ptr %3 monotonic, align 8
  %5 = uitofp i64 %4 to double
  %6 = fdiv double %1, 1.000000e+02
  %7 = fmul double %6, %5
  %8 = getelementptr inbounds nuw i8, ptr %0, i64 912
  %9 = load i64, ptr %8, align 8, !tbaa !25
  %.not4857.not = icmp eq i64 %9, 0
  br i1 %.not4857.not, label %._crit_edge, label %.lr.ph

.lr.ph:                                           ; preds = %2
  %10 = getelementptr inbounds nuw i8, ptr %0, i64 40
  br label %11

11:                                               ; preds = %.lr.ph, %43
  %12 = phi i64 [ 0, %.lr.ph ], [ %45, %43 ]
  %.03559 = phi i64 [ 0, %.lr.ph ], [ %15, %43 ]
  %.03858 = phi i32 [ 0, %.lr.ph ], [ %44, %43 ]
  %13 = getelementptr inbounds nuw [109 x %"struct.std::atomic"], ptr %10, i64 0, i64 %12
  %14 = load atomic i64, ptr %13 monotonic, align 8
  %15 = add i64 %14, %.03559
  %16 = uitofp i64 %15 to double
  %17 = fcmp ugt double %7, %16
  br i1 %17, label %43, label %18

18:                                               ; preds = %11
  %19 = icmp eq i32 %.03858, 0
  %.pre = load ptr, ptr @_ZN7rocksdb12_GLOBAL__N_112bucketMapperE, align 8, !tbaa !4
  br i1 %19, label %.thread51, label %20

20:                                               ; preds = %18
  %21 = add i32 %.03858, -1
  %22 = zext i32 %21 to i64
  %23 = getelementptr inbounds nuw i64, ptr %.pre, i64 %22
  %24 = load i64, ptr %23, align 8, !tbaa !12
  br label %.thread51

.thread51:                                        ; preds = %18, %20
  %25 = phi i64 [ %24, %20 ], [ 0, %18 ]
  %26 = getelementptr inbounds nuw i64, ptr %.pre, i64 %12
  %27 = load i64, ptr %26, align 8, !tbaa !12
  %.not = icmp eq i64 %14, 0
  %28 = uitofp i64 %.03559 to double
  %29 = fsub double %7, %28
  %30 = uitofp i64 %14 to double
  %31 = fdiv double %29, %30
  %.039 = select i1 %.not, double 0.000000e+00, double %31
  %32 = uitofp i64 %25 to double
  %33 = sub i64 %27, %25
  %34 = uitofp i64 %33 to double
  %35 = tail call double @llvm.fmuladd.f64(double %34, double %.039, double %32)
  %36 = load atomic i64, ptr %0 monotonic, align 8
  %37 = getelementptr inbounds nuw i8, ptr %0, i64 8
  %38 = load atomic i64, ptr %37 monotonic, align 8
  %39 = uitofp i64 %36 to double
  %40 = fcmp olt double %35, %39
  %.036 = select i1 %40, double %39, double %35
  %41 = uitofp i64 %38 to double
  %42 = fcmp ogt double %.036, %41
  %.137 = select i1 %42, double %41, double %.036
  br label %49

43:                                               ; preds = %11
  %44 = add i32 %.03858, 1
  %45 = zext i32 %44 to i64
  %.not48 = icmp ugt i64 %9, %45
  br i1 %.not48, label %11, label %._crit_edge, !llvm.loop !33

._crit_edge:                                      ; preds = %43, %2
  %46 = getelementptr inbounds nuw i8, ptr %0, i64 8
  %47 = load atomic i64, ptr %46 monotonic, align 8
  %48 = uitofp i64 %47 to double
  br label %49

49:                                               ; preds = %.thread51, %._crit_edge
  %.3 = phi double [ %48, %._crit_edge ], [ %.137, %.thread51 ]
  ret double %.3
}